target datalayout = "e-m:e-p270:32:32-p271:32:32-p272:64:64-i64:64-i128:128-f80:128-n8:16:32:64-S128"
target triple = "x86_64-pc-linux-gnu"

%struct.mi_page_s = type { i32, i32, i8, i16, i16, %union.mi_page_flags_s, i8, ptr, ptr, i16, i8, i8, i64, ptr, i64, i64, ptr, ptr, [1 x ptr] }
%union.mi_page_flags_s = type { i8 }
%struct.mi_block_s = type { i64 }

@.str.1 = private unnamed_addr constant [28 x i8] c"corrupted thread-free list\0A\00", align 1

; Function Attrs: inlinehint nounwind uwtable
define internal i64 @mi_tf_make(ptr noundef %0, i32 noundef %1) #1 {
  %3 = alloca ptr, align 8
  %4 = alloca i32, align 4
  store ptr %0, ptr %3, align 8, !tbaa !42
  store i32 %1, ptr %4, align 4, !tbaa !28
  %5 = load ptr, ptr %3, align 8, !tbaa !42
  %6 = ptrtoint ptr %5 to i64
  %7 = load i32, ptr %4, align 4, !tbaa !28
  %8 = zext i32 %7 to i64
  %9 = or i64 %6, %8
  ret i64 %9
}

; Function Attrs: inlinehint nounwind uwtable
define internal i32 @mi_tf_delayed(i64 noundef %0) #1 {
  %2 = alloca i64, align 8
  store i64 %0, ptr %2, align 8, !tbaa !3
  %3 = load i64, ptr %2, align 8, !tbaa !3
  %4 = and i64 %3, 3
  %5 = trunc i64 %4 to i32
  ret i32 %5
}

; Function Attrs: inlinehint nounwind uwtable
define internal void @mi_block_set_nextx(ptr noundef %0, ptr noundef %1, ptr noundef %2, ptr noundef %3) #1 {
  %5 = alloca ptr, align 8
  %6 = alloca ptr, align 8
  %7 = alloca ptr, align 8
  %8 = alloca ptr, align 8
  store ptr %0, ptr %5, align 8, !tbaa !57
  store ptr %1, ptr %6, align 8, !tbaa !42
  store ptr %2, ptr %7, align 8, !tbaa !42
  store ptr %3, ptr %8, align 8, !tbaa !58
  %9 = load ptr, ptr %7, align 8, !tbaa !42
  %10 = ptrtoint ptr %9 to i64
  %11 = load ptr, ptr %6, align 8, !tbaa !42
  %12 = getelementptr inbounds nuw %struct.mi_block_s, ptr %11, i32 0, i32 0
  store i64 %10, ptr %12, align 8, !tbaa !60
  ret void
}

; Function Attrs: inlinehint nounwind uwtable
define internal ptr @mi_block_nextx(ptr noundef %0, ptr noundef %1, ptr noundef %2) #1 {
  %4 = alloca ptr, align 8
  %5 = alloca ptr, align 8
  %6 = alloca ptr, align 8
  %7 = alloca ptr, align 8
  store ptr %0, ptr %4, align 8, !tbaa !57
  store ptr %1, ptr %5, align 8, !tbaa !42
  store ptr %2, ptr %6, align 8, !tbaa !58
  call void @llvm.lifetime.start.p0(i64 8, ptr %7) #6
  %8 = load ptr, ptr %5, align 8, !tbaa !42
  %9 = getelementptr inbounds nuw %struct.mi_block_s, ptr %8, i32 0, i32 0
  %10 = load i64, ptr %9, align 8, !tbaa !60
  %11 = inttoptr i64 %10 to ptr
  store ptr %11, ptr %7, align 8, !tbaa !42
  %12 = load ptr, ptr %7, align 8, !tbaa !42
  call void @llvm.lifetime.end.p0(i64 8, ptr %7) #6
  ret ptr %12
}

; Function Attrs: inlinehint nounwind uwtable
define internal i64 @mi_tf_set_block(i64 noundef %0, ptr noundef %1) #1 {
  %3 = alloca i64, align 8
  %4 = alloca ptr, align 8
  store i64 %0, ptr %3, align 8, !tbaa !3
  store ptr %1, ptr %4, align 8, !tbaa !42
  %5 = load ptr, ptr %4, align 8, !tbaa !42
  %6 = load i64, ptr %3, align 8, !tbaa !3
  %7 = call i32 @mi_tf_delayed(i64 noundef %6) #10
  %8 = call i64 @mi_tf_make(ptr noundef %5, i32 noundef %7) #10
  ret i64 %8
}

; Function Attrs: inlinehint nounwind uwtable
define internal ptr @mi_tf_block(i64 noundef %0) #1 {
  %2 = alloca i64, align 8
  store i64 %0, ptr %2, align 8, !tbaa !3
  %3 = load i64, ptr %2, align 8, !tbaa !3
  %4 = and i64 %3, -4
  %5 = inttoptr i64 %4 to ptr
  ret ptr %5
}

; Function Attrs: inlinehint nounwind uwtable
define internal void @mi_block_set_next(ptr noundef %0, ptr noundef %1, ptr noundef %2) #1 {
  %4 = alloca ptr, align 8
  %5 = alloca ptr, align 8
  %6 = alloca ptr, align 8
  store ptr %0, ptr %4, align 8, !tbaa !17
  store ptr %1, ptr %5, align 8, !tbaa !42
  store ptr %2, ptr %6, align 8, !tbaa !42
  %7 = load ptr, ptr %4, align 8, !tbaa !17
  %8 = load ptr, ptr %5, align 8, !tbaa !42
  %9 = load ptr, ptr %6, align 8, !tbaa !42
  call void @mi_block_set_nextx(ptr noundef %7, ptr noundef %8, ptr noundef %9, ptr noundef null) #10
  ret void
}

; Function Attrs: inlinehint nounwind uwtable
define internal ptr @mi_block_next(ptr noundef %0, ptr noundef %1) #1 {
  %3 = alloca ptr, align 8
  %4 = alloca ptr, align 8
  store ptr %0, ptr %3, align 8, !tbaa !17
  store ptr %1, ptr %4, align 8, !tbaa !42
  %5 = load ptr, ptr %3, align 8, !tbaa !17
  %6 = load ptr, ptr %4, align 8, !tbaa !42
  %7 = call ptr @mi_block_nextx(ptr noundef %5, ptr noundef %6, ptr noundef null) #10
  ret ptr %7
}

; Function Attrs: nounwind uwtable
define internal void @_mi_page_thread_free_collect(ptr noundef %0) #0 {
  %2 = alloca ptr, align 8
  %3 = alloca ptr, align 8
  %4 = alloca i64, align 8
  %5 = alloca i64, align 8
  %6 = alloca i64, align 8
  %7 = alloca i64, align 8
  %8 = alloca i8, align 1
  %9 = alloca i32, align 4
  %10 = alloca i64, align 8
  %11 = alloca i64, align 8
  %12 = alloca ptr, align 8
  %13 = alloca ptr, align 8
  store ptr %0, ptr %2, align 8, !tbaa !17
  call void @llvm.lifetime.start.p0(i64 8, ptr %3) #6
  call void @llvm.lifetime.start.p0(i64 8, ptr %4) #6
  call void @llvm.lifetime.start.p0(i64 8, ptr %5) #6
  %14 = load ptr, ptr %2, align 8, !tbaa !17
  %15 = getelementptr inbounds nuw %struct.mi_page_s, ptr %14, i32 0, i32 14
  %16 = load atomic i64, ptr %15 monotonic, align 8
  store i64 %16, ptr %6, align 8
  %17 = load i64, ptr %6, align 8, !tbaa !3
  store i64 %17, ptr %5, align 8, !tbaa !3
  br label %18

18:                                               ; preds = %33, %1
  %19 = load i64, ptr %5, align 8, !tbaa !3
  %20 = call ptr @mi_tf_block(i64 noundef %19) #10
  store ptr %20, ptr %3, align 8, !tbaa !42
  %21 = load i64, ptr %5, align 8, !tbaa !3
  %22 = call i64 @mi_tf_set_block(i64 noundef %21, ptr noundef null) #10
  store i64 %22, ptr %4, align 8, !tbaa !3
  br label %23

23:                                               ; preds = %18
  %24 = load ptr, ptr %2, align 8, !tbaa !17
  %25 = getelementptr inbounds nuw %struct.mi_page_s, ptr %24, i32 0, i32 14
  %26 = load i64, ptr %4, align 8, !tbaa !3
  store i64 %26, ptr %7, align 8, !tbaa !3
  %27 = load i64, ptr %5, align 8
  %28 = load i64, ptr %7, align 8
  %29 = cmpxchg weak ptr %25, i64 %27, i64 %28 acq_rel acquire, align 8
  %30 = extractvalue { i64, i1 } %29, 0
  %31 = extractvalue { i64, i1 } %29, 1
  br i1 %31, label %33, label %32

32:                                               ; preds = %23
  store i64 %30, ptr %5, align 8
  br label %33

33:                                               ; preds = %32, %23
  %34 = zext i1 %31 to i8
  store i8 %34, ptr %8, align 1, !tbaa !29
  %35 = load i8, ptr %8, align 1, !tbaa !29, !range !31, !noundef !32
  %36 = trunc i8 %35 to i1
  %37 = xor i1 %36, true
  br i1 %37, label %18, label %38, !llvm.loop !44

38:                                               ; preds = %33
  %39 = load ptr, ptr %3, align 8, !tbaa !42
  %40 = icmp eq ptr %39, null
  br i1 %40, label %41, label %42

41:                                               ; preds = %38
  store i32 1, ptr %9, align 4
  br label %87

42:                                               ; preds = %38
  call void @llvm.lifetime.start.p0(i64 8, ptr %10) #6
  %43 = load ptr, ptr %2, align 8, !tbaa !17
  %44 = getelementptr inbounds nuw %struct.mi_page_s, ptr %43, i32 0, i32 3
  %45 = load i16, ptr %44, align 2, !tbaa !45
  %46 = zext i16 %45 to i64
  store i64 %46, ptr %10, align 8, !tbaa !3
  call void @llvm.lifetime.start.p0(i64 8, ptr %11) #6
  store i64 1, ptr %11, align 8, !tbaa !3
  call void @llvm.lifetime.start.p0(i64 8, ptr %12) #6
  %47 = load ptr, ptr %3, align 8, !tbaa !42
  store ptr %47, ptr %12, align 8, !tbaa !42
  call void @llvm.lifetime.start.p0(i64 8, ptr %13) #6
  br label %48

48:                                               ; preds = %59, %42
  %49 = load ptr, ptr %2, align 8, !tbaa !17
  %50 = load ptr, ptr %12, align 8, !tbaa !42
  %51 = call ptr @mi_block_next(ptr noundef %49, ptr noundef %50) #10
  store ptr %51, ptr %13, align 8, !tbaa !42
  %52 = icmp ne ptr %51, null
  br i1 %52, label %53, label %57

53:                                               ; preds = %48
  %54 = load i64, ptr %11, align 8, !tbaa !3
  %55 = load i64, ptr %10, align 8, !tbaa !3
  %56 = icmp ule i64 %54, %55
  br label %57

57:                                               ; preds = %53, %48
  %58 = phi i1 [ false, %48 ], [ %56, %53 ]
  br i1 %58, label %59, label %63

59:                                               ; preds = %57
  %60 = load i64, ptr %11, align 8, !tbaa !3
  %61 = add i64 %60, 1
  store i64 %61, ptr %11, align 8, !tbaa !3
  %62 = load ptr, ptr %13, align 8, !tbaa !42
  store ptr %62, ptr %12, align 8, !tbaa !42
  br label %48, !llvm.loop !46

63:                                               ; preds = %57
  %64 = load i64, ptr %11, align 8, !tbaa !3
  %65 = load i64, ptr %10, align 8, !tbaa !3
  %66 = icmp ugt i64 %64, %65
  br i1 %66, label %67, label %68

67:                                               ; preds = %63
  call void (i32, ptr, ...) @_mi_error_message(i32 noundef 14, ptr noundef @.str.1) #10
  store i32 1, ptr %9, align 4
  br label %86

68:                                               ; preds = %63
  %69 = load ptr, ptr %2, align 8, !tbaa !17
  %70 = load ptr, ptr %12, align 8, !tbaa !42
  %71 = load ptr, ptr %2, align 8, !tbaa !17
  %72 = getelementptr inbounds nuw %struct.mi_page_s, ptr %71, i32 0, i32 8
  %73 = load ptr, ptr %72, align 8, !tbaa !40
  call void @mi_block_set_next(ptr noundef %69, ptr noundef %70, ptr noundef %73) #10
  %74 = load ptr, ptr %3, align 8, !tbaa !42
  %75 = load ptr, ptr %2, align 8, !tbaa !17
  %76 = getelementptr inbounds nuw %struct.mi_page_s, ptr %75, i32 0, i32 8
  store ptr %74, ptr %76, align 8, !tbaa !40
  %77 = load i64, ptr %11, align 8, !tbaa !3
  %78 = trunc i64 %77 to i16
  %79 = zext i16 %78 to i32
  %80 = load ptr, ptr %2, align 8, !tbaa !17
  %81 = getelementptr inbounds nuw %struct.mi_page_s, ptr %80, i32 0, i32 9
  %82 = load i16, ptr %81, align 8, !tbaa !47
  %83 = zext i16 %82 to i32
  %84 = sub nsw i32 %83, %79
  %85 = trunc i32 %84 to i16
  store i16 %85, ptr %81, align 8, !tbaa !47
  store i32 0, ptr %9, align 4
  br label %86

86:                                               ; preds = %68, %67
  call void @llvm.lifetime.end.p0(i64 8, ptr %13) #6
  call void @llvm.lifetime.end.p0(i64 8, ptr %12) #6
  call void @llvm.lifetime.end.p0(i64 8, ptr %11) #6
  call void @llvm.lifetime.end.p0(i64 8, ptr %10) #6
  br label %87

87:                                               ; preds = %86, %41
  call void @llvm.lifetime.end.p0(i64 8, ptr %5) #6
  call void @llvm.lifetime.end.p0(i64 8, ptr %4) #6
  call void @llvm.lifetime.end.p0(i64 8, ptr %3) #6
  %88 = load i32, ptr %9, align 4
  switch i32 %88, label %90 [
    i32 0, label %89
    i32 1, label %89
  ]

89:                                               ; preds = %87, %87
  ret void

90:                                               ; preds = %87
  unreachable
}

; Function Attrs: inlinehint nounwind uwtable
define internal ptr @mi_page_thread_free(ptr noundef %0) #1 {
  %2 = alloca ptr, align 8
  %3 = alloca i64, align 8
  store ptr %0, ptr %2, align 8, !tbaa !17
  %4 = load ptr, ptr %2, align 8, !tbaa !17
  %5 = getelementptr inbounds nuw %struct.mi_page_s, ptr %4, i32 0, i32 14
  %6 = load atomic i64, ptr %5 monotonic, align 8
  store i64 %6, ptr %3, align 8
  %7 = load i64, ptr %3, align 8, !tbaa !3
  %8 = and i64 %7, -4
  %9 = inttoptr i64 %8 to ptr
  ret ptr %9
}

; Function Attrs: nounwind uwtable
define hidden void @_mi_page_free_collect(ptr noundef %0, i1 noundef zeroext %1) #0 {
  %3 = alloca ptr, align 8
  %4 = alloca i8, align 1
  %5 = alloca ptr, align 8
  %6 = alloca ptr, align 8
  store ptr %0, ptr %3, align 8, !tbaa !17
  %7 = zext i1 %1 to i8
  store i8 %7, ptr %4, align 1, !tbaa !29
  %8 = load i8, ptr %4, align 1, !tbaa !29, !range !31, !noundef !32
  %9 = trunc i8 %8 to i1
  br i1 %9, label %14, label %10

10:                                               ; preds = %2
  %11 = load ptr, ptr %3, align 8, !tbaa !17
  %12 = call ptr @mi_page_thread_free(ptr noundef %11) #10
  %13 = icmp ne ptr %12, null
  br i1 %13, label %14, label %16

14:                                               ; preds = %10, %2
  %15 = load ptr, ptr %3, align 8, !tbaa !17
  call void @_mi_page_thread_free_collect(ptr noundef %15) #10
  br label %16

16:                                               ; preds = %14, %10
  %17 = load ptr, ptr %3, align 8, !tbaa !17
  %18 = getelementptr inbounds nuw %struct.mi_page_s, ptr %17, i32 0, i32 8
  %19 = load ptr, ptr %18, align 8, !tbaa !40
  %20 = icmp ne ptr %19, null
  br i1 %20, label %21, label %79

21:                                               ; preds = %16
  %22 = load ptr, ptr %3, align 8, !tbaa !17
  %23 = getelementptr inbounds nuw %struct.mi_page_s, ptr %22, i32 0, i32 7
  %24 = load ptr, ptr %23, align 8, !tbaa !41
  %25 = icmp eq ptr %24, null
  %26 = xor i1 %25, true
  %27 = xor i1 %26, true
  %28 = zext i1 %27 to i32
  %29 = sext i32 %28 to i64
  %30 = call i64 @llvm.expect.i64(i64 %29, i64 1)
  %31 = icmp ne i64 %30, 0
  br i1 %31, label %32, label %45

32:                                               ; preds = %21
  %33 = load ptr, ptr %3, align 8, !tbaa !17
  %34 = getelementptr inbounds nuw %struct.mi_page_s, ptr %33, i32 0, i32 8
  %35 = load ptr, ptr %34, align 8, !tbaa !40
  %36 = load ptr, ptr %3, align 8, !tbaa !17
  %37 = getelementptr inbounds nuw %struct.mi_page_s, ptr %36, i32 0, i32 7
  store ptr %35, ptr %37, align 8, !tbaa !41
  %38 = load ptr, ptr %3, align 8, !tbaa !17
  %39 = getelementptr inbounds nuw %struct.mi_page_s, ptr %38, i32 0, i32 8
  store ptr null, ptr %39, align 8, !tbaa !40
  %40 = load ptr, ptr %3, align 8, !tbaa !17
  %41 = getelementptr inbounds nuw %struct.mi_page_s, ptr %40, i32 0, i32 6
  %42 = load i8, ptr %41, align 1
  %43 = and i8 %42, -2
  %44 = or i8 %43, 0
  store i8 %44, ptr %41, align 1
  br label %78

45:                                               ; preds = %21
  %46 = load i8, ptr %4, align 1, !tbaa !29, !range !31, !noundef !32
  %47 = trunc i8 %46 to i1
  br i1 %47, label %48, label %77

48:                                               ; preds = %45
  call void @llvm.lifetime.start.p0(i64 8, ptr %5) #6
  %49 = load ptr, ptr %3, align 8, !tbaa !17
  %50 = getelementptr inbounds nuw %struct.mi_page_s, ptr %49, i32 0, i32 8
  %51 = load ptr, ptr %50, align 8, !tbaa !40
  store ptr %51, ptr %5, align 8, !tbaa !42
  call void @llvm.lifetime.start.p0(i64 8, ptr %6) #6
  br label %52

52:                                               ; preds = %57, %48
  %53 = load ptr, ptr %3, align 8, !tbaa !17
  %54 = load ptr, ptr %5, align 8, !tbaa !42
  %55 = call ptr @mi_block_next(ptr noundef %53, ptr noundef %54) #10
  store ptr %55, ptr %6, align 8, !tbaa !42
  %56 = icmp ne ptr %55, null
  br i1 %56, label %57, label %59

57:                                               ; preds = %52
  %58 = load ptr, ptr %6, align 8, !tbaa !42
  store ptr %58, ptr %5, align 8, !tbaa !42
  br label %52, !llvm.loop !43

59:                                               ; preds = %52
  %60 = load ptr, ptr %3, align 8, !tbaa !17
  %61 = load ptr, ptr %5, align 8, !tbaa !42
  %62 = load ptr, ptr %3, align 8, !tbaa !17
  %63 = getelementptr inbounds nuw %struct.mi_page_s, ptr %62, i32 0, i32 7
  %64 = load ptr, ptr %63, align 8, !tbaa !41
  call void @mi_block_set_next(ptr noundef %60, ptr noundef %61, ptr noundef %64) #10
  %65 = load ptr, ptr %3, align 8, !tbaa !17
  %66 = getelementptr inbounds nuw %struct.mi_page_s, ptr %65, i32 0, i32 8
  %67 = load ptr, ptr %66, align 8, !tbaa !40
  %68 = load ptr, ptr %3, align 8, !tbaa !17
  %69 = getelementptr inbounds nuw %struct.mi_page_s, ptr %68, i32 0, i32 7
  store ptr %67, ptr %69, align 8, !tbaa !41
  %70 = load ptr, ptr %3, align 8, !tbaa !17
  %71 = getelementptr inbounds nuw %struct.mi_page_s, ptr %70, i32 0, i32 8
  store ptr null, ptr %71, align 8, !tbaa !40
  %72 = load ptr, ptr %3, align 8, !tbaa !17
  %73 = getelementptr inbounds nuw %struct.mi_page_s, ptr %72, i32 0, i32 6
  %74 = load i8, ptr %73, align 1
  %75 = and i8 %74, -2
  %76 = or i8 %75, 0
  store i8 %76, ptr %73, align 1
  call void @llvm.lifetime.end.p0(i64 8, ptr %6) #6
  call void @llvm.lifetime.end.p0(i64 8, ptr %5) #6
  br label %77

77:                                               ; preds = %59, %45
  br label %78

78:                                               ; preds = %77, %32
  br label %79

79:                                               ; preds = %78, %16
  ret void
}