; Function Attrs: nounwind uwtable
define hidden void @_mi_page_free_collect(ptr noundef captures(none) %0, i1 noundef zeroext %1) local_unnamed_addr #1 {
  br i1 %1, label %6, label %3

3:                                                ; preds = %2
  %4 = getelementptr inbounds nuw i8, ptr %0, i64 56
  %5 = load atomic i64, ptr %4 monotonic, align 8
  %.not = icmp ult i64 %5, 4
  br i1 %.not, label %_mi_page_thread_free_collect.exit, label %6

6:                                                ; preds = %3, %2
  %7 = getelementptr inbounds nuw i8, ptr %0, i64 56
  %8 = load atomic i64, ptr %7 monotonic, align 8
  br label %9

9:                                                ; preds = %9, %6
  %.0.i = phi i64 [ %8, %6 ], [ %13, %9 ]
  %10 = and i64 %.0.i, 3
  %11 = cmpxchg weak ptr %7, i64 %.0.i, i64 %10 acq_rel acquire, align 8
  %12 = extractvalue { i64, i1 } %11, 1
  %13 = extractvalue { i64, i1 } %11, 0
  br i1 %12, label %14, label %9, !llvm.loop !29

14:                                               ; preds = %9
  %15 = and i64 %.0.i, -4
  %16 = inttoptr i64 %15 to ptr
  %17 = icmp eq i64 %15, 0
  br i1 %17, label %_mi_page_thread_free_collect.exit, label %18

18:                                               ; preds = %14
  %19 = getelementptr inbounds nuw i8, ptr %0, i64 10
  %20 = load i16, ptr %19, align 2, !tbaa !30
  %21 = zext i16 %20 to i64
  %.026.val32.i = load i64, ptr %16, align 8, !tbaa !31
  %22 = icmp ne i64 %.026.val32.i, 0
  %23 = icmp ne i16 %20, 0
  %24 = select i1 %22, i1 %23, i1 false
  br i1 %24, label %.lr.ph.i, label %._crit_edge.i

.lr.ph.i:                                         ; preds = %18, %.lr.ph.i
  %.026.val34.i = phi i64 [ %.026.val.i, %.lr.ph.i ], [ %.026.val32.i, %18 ]
  %.02733.i = phi i64 [ %26, %.lr.ph.i ], [ 1, %18 ]
  %25 = inttoptr i64 %.026.val34.i to ptr
  %26 = add nuw nsw i64 %.02733.i, 1
  %.026.val.i = load i64, ptr %25, align 8, !tbaa !31
  %27 = icmp ne i64 %.026.val.i, 0
  %28 = icmp samesign ult i64 %.02733.i, %21
  %29 = select i1 %27, i1 %28, i1 false
  br i1 %29, label %.lr.ph.i, label %._crit_edge.i, !llvm.loop !33

._crit_edge.i:                                    ; preds = %.lr.ph.i, %18
  %.027.lcssa.i = phi i64 [ 1, %18 ], [ %26, %.lr.ph.i ]
  %.026.lcssa.i = phi ptr [ %16, %18 ], [ %25, %.lr.ph.i ]
  %30 = icmp samesign ugt i64 %.027.lcssa.i, %21
  br i1 %30, label %31, label %32

31:                                               ; preds = %._crit_edge.i
  tail call void (i32, ptr, ...) @_mi_error_message(i32 noundef 14, ptr noundef nonnull @.str.1) #13
  br label %_mi_page_thread_free_collect.exit

32:                                               ; preds = %._crit_edge.i
  %33 = getelementptr inbounds nuw i8, ptr %0, i64 24
  %34 = load ptr, ptr %33, align 8, !tbaa !34
  %35 = ptrtoint ptr %34 to i64
  store i64 %35, ptr %.026.lcssa.i, align 8, !tbaa !31
  store ptr %16, ptr %33, align 8, !tbaa !34
  %36 = trunc i64 %.027.lcssa.i to i16
  %37 = getelementptr inbounds nuw i8, ptr %0, i64 32
  %38 = load i16, ptr %37, align 8, !tbaa !35
  %39 = sub i16 %38, %36
  store i16 %39, ptr %37, align 8, !tbaa !35
  br label %_mi_page_thread_free_collect.exit

_mi_page_thread_free_collect.exit:                ; preds = %32, %31, %14, %3
  %40 = getelementptr inbounds nuw i8, ptr %0, i64 24
  %41 = load ptr, ptr %40, align 8, !tbaa !34
  %.not22 = icmp eq ptr %41, null
  br i1 %.not22, label %53, label %42

42:                                               ; preds = %_mi_page_thread_free_collect.exit
  %43 = getelementptr inbounds nuw i8, ptr %0, i64 16
  %44 = load ptr, ptr %43, align 8, !tbaa !36
  %45 = icmp eq ptr %44, null
  br i1 %45, label %.sink.split, label %46, !prof !28

46:                                               ; preds = %42
  br i1 %1, label %.preheader, label %53

.preheader:                                       ; preds = %46, %.preheader
  %.0 = phi ptr [ %47, %.preheader ], [ %41, %46 ]
  %.0.val = load i64, ptr %.0, align 8, !tbaa !31
  %47 = inttoptr i64 %.0.val to ptr
  %.not23 = icmp eq i64 %.0.val, 0
  br i1 %.not23, label %48, label %.preheader, !llvm.loop !37

48:                                               ; preds = %.preheader
  %49 = ptrtoint ptr %44 to i64
  store i64 %49, ptr %.0, align 8, !tbaa !31
  br label %.sink.split

.sink.split:                                      ; preds = %42, %48
  store ptr %41, ptr %43, align 8, !tbaa !36
  store ptr null, ptr %40, align 8, !tbaa !34
  %50 = getelementptr inbounds nuw i8, ptr %0, i64 15
  %51 = load i8, ptr %50, align 1
  %52 = and i8 %51, -2
  store i8 %52, ptr %50, align 1
  br label %53

53:                                               ; preds = %.sink.split, %46, %_mi_page_thread_free_collect.exit
  ret void
}